; Function Attrs: mustprogress uwtable
define hidden void @_ZN4cvc58internal11CardinalityC2El(ptr noundef nonnull align 8 dereferenceable(16) %0, i64 noundef %1) unnamed_addr #4 align 2 personality ptr @__gxx_personality_v0 {
_ZN4cvc58internal7IntegerC2El.exit:
  %2 = alloca %"class.cvc5::internal::Integer", align 8
  tail call void @__gmpz_init_set_si(ptr noundef nonnull align 8 dereferenceable(16) %0, i64 noundef %1)
  call void @llvm.lifetime.start.p0(i64 16, ptr nonnull %2) #15
  invoke void @__gmpz_init_set_ui(ptr noundef nonnull align 8 dereferenceable(16) %2, i64 noundef 1)
          to label %_ZN4cvc58internal7IntegerC2Ei.exit unwind label %8

_ZN4cvc58internal7IntegerC2Ei.exit:               ; preds = %_ZN4cvc58internal7IntegerC2El.exit
  %3 = invoke noundef nonnull align 8 dereferenceable(16) ptr @_ZN4cvc58internal7IntegerpLERKS1_(ptr noundef nonnull align 8 dereferenceable(16) %0, ptr noundef nonnull align 8 dereferenceable(16) %2)
          to label %4 unwind label %10

4:                                                ; preds = %_ZN4cvc58internal7IntegerC2Ei.exit
  invoke void @__gmpz_clear(ptr noundef nonnull align 8 dereferenceable(16) %2)
          to label %_ZN4cvc58internal7IntegerD2Ev.exit unwind label %5

5:                                                ; preds = %4
  %6 = landingpad { ptr, i32 }
          catch ptr null
  %7 = extractvalue { ptr, i32 } %6, 0
  call void @__clang_call_terminate(ptr %7) #14
  unreachable

_ZN4cvc58internal7IntegerD2Ev.exit:               ; preds = %4
  call void @llvm.lifetime.end.p0(i64 16, ptr nonnull %2) #15
  ret void

8:                                                ; preds = %_ZN4cvc58internal7IntegerC2El.exit
  %9 = landingpad { ptr, i32 }
          cleanup
  br label %_ZN4cvc58internal7IntegerD2Ev.exit5

10:                                               ; preds = %_ZN4cvc58internal7IntegerC2Ei.exit
  %11 = landingpad { ptr, i32 }
          cleanup
  invoke void @__gmpz_clear(ptr noundef nonnull align 8 dereferenceable(16) %2)
          to label %_ZN4cvc58internal7IntegerD2Ev.exit5 unwind label %12

12:                                               ; preds = %10
  %13 = landingpad { ptr, i32 }
          catch ptr null
  %14 = extractvalue { ptr, i32 } %13, 0
  call void @__clang_call_terminate(ptr %14) #14
  unreachable

_ZN4cvc58internal7IntegerD2Ev.exit5:              ; preds = %10, %8
  %.pn = phi { ptr, i32 } [ %9, %8 ], [ %11, %10 ]
  call void @llvm.lifetime.end.p0(i64 16, ptr nonnull %2) #15
  invoke void @__gmpz_clear(ptr noundef nonnull align 8 dereferenceable(16) %0)
          to label %_ZN4cvc58internal7IntegerD2Ev.exit6 unwind label %15

15:                                               ; preds = %_ZN4cvc58internal7IntegerD2Ev.exit5
  %16 = landingpad { ptr, i32 }
          catch ptr null
  %17 = extractvalue { ptr, i32 } %16, 0
  call void @__clang_call_terminate(ptr %17) #14
  unreachable

_ZN4cvc58internal7IntegerD2Ev.exit6:              ; preds = %_ZN4cvc58internal7IntegerD2Ev.exit5
  resume { ptr, i32 } %.pn
}